target datalayout = "e-m:e-p270:32:32-p271:32:32-p272:64:64-i64:64-i128:128-f80:128-n8:16:32:64-S128"
target triple = "x86_64-pc-linux-gnu"

%struct._object = type { %union.anon, ptr }
%union.anon = type { i64 }
%struct.PyVarObject = type { %struct._object, i64 }

; Function Attrs: inlinehint nounwind uwtable
define internal i64 @Py_SIZE(ptr noundef %0) #5 {
  %2 = alloca ptr, align 8
  store ptr %0, ptr %2, align 8, !tbaa !25
  %3 = load ptr, ptr %2, align 8, !tbaa !25
  %4 = getelementptr inbounds nuw %struct.PyVarObject, ptr %3, i32 0, i32 1
  %5 = load i64, ptr %4, align 8, !tbaa !45
  ret i64 %5
}

; Function Attrs: nounwind uwtable
define internal ptr @marshal_dumps_impl(ptr noundef %0, ptr noundef %1, i32 noundef %2, i32 noundef %3) #0 {
  %5 = alloca ptr, align 8
  %6 = alloca ptr, align 8
  %7 = alloca i32, align 4
  %8 = alloca i32, align 4
  store ptr %0, ptr %5, align 8, !tbaa !25
  store ptr %1, ptr %6, align 8, !tbaa !25
  store i32 %2, ptr %7, align 4, !tbaa !11
  store i32 %3, ptr %8, align 4, !tbaa !11
  %9 = load ptr, ptr %6, align 8, !tbaa !25
  %10 = load i32, ptr %7, align 4, !tbaa !11
  %11 = load i32, ptr %8, align 4, !tbaa !11
  %12 = call ptr @_PyMarshal_WriteObjectToString(ptr noundef %9, i32 noundef %10, i32 noundef %11)
  ret ptr %12
}

; Function Attrs: inlinehint nounwind uwtable
define internal i64 @PyTuple_GET_SIZE(ptr noundef %0) #5 {
  %2 = alloca ptr, align 8
  %3 = alloca ptr, align 8
  store ptr %0, ptr %2, align 8, !tbaa !25
  call void @llvm.lifetime.start.p0(i64 8, ptr %3) #11
  %4 = load ptr, ptr %2, align 8, !tbaa !25
  store ptr %4, ptr %3, align 8, !tbaa !23
  %5 = load ptr, ptr %3, align 8, !tbaa !23
  %6 = call i64 @Py_SIZE(ptr noundef %5)
  call void @llvm.lifetime.end.p0(i64 8, ptr %3) #11
  ret i64 %6
}

; Function Attrs: nounwind uwtable
define internal ptr @marshal_dumps(ptr noundef %0, ptr noundef %1, i64 noundef %2, ptr noundef %3) #0 {
  %5 = alloca ptr, align 8
  %6 = alloca ptr, align 8
  %7 = alloca i64, align 8
  %8 = alloca ptr, align 8
  %9 = alloca ptr, align 8
  %10 = alloca [3 x ptr], align 16
  %11 = alloca i64, align 8
  %12 = alloca ptr, align 8
  %13 = alloca i32, align 4
  %14 = alloca i32, align 4
  store ptr %0, ptr %5, align 8, !tbaa !25
  store ptr %1, ptr %6, align 8, !tbaa !140
  store i64 %2, ptr %7, align 8, !tbaa !4
  store ptr %3, ptr %8, align 8, !tbaa !25
  call void @llvm.lifetime.start.p0(i64 8, ptr %9) #11
  store ptr null, ptr %9, align 8, !tbaa !25
  call void @llvm.lifetime.start.p0(i64 24, ptr %10) #11
  call void @llvm.lifetime.start.p0(i64 8, ptr %11) #11
  %15 = load i64, ptr %7, align 8, !tbaa !4
  %16 = load ptr, ptr %8, align 8, !tbaa !25
  %17 = icmp ne ptr %16, null
  br i1 %17, label %18, label %21

18:                                               ; preds = %4
  %19 = load ptr, ptr %8, align 8, !tbaa !25
  %20 = call i64 @PyTuple_GET_SIZE(ptr noundef %19)
  br label %22

21:                                               ; preds = %4
  br label %22

22:                                               ; preds = %21, %18
  %23 = phi i64 [ %20, %18 ], [ 0, %21 ]
  %24 = add i64 %15, %23
  %25 = sub i64 %24, 1
  store i64 %25, ptr %11, align 8, !tbaa !4
  call void @llvm.lifetime.start.p0(i64 8, ptr %12) #11
  call void @llvm.lifetime.start.p0(i64 4, ptr %13) #11
  store i32 5, ptr %13, align 4, !tbaa !11
  call void @llvm.lifetime.start.p0(i64 4, ptr %14) #11
  store i32 1, ptr %14, align 4, !tbaa !11
  %26 = load ptr, ptr %8, align 8, !tbaa !25
  %27 = icmp eq ptr %26, null
  br i1 %27, label %28, label %39

28:                                               ; preds = %22
  %29 = load i64, ptr %7, align 8, !tbaa !4
  %30 = icmp sle i64 1, %29
  br i1 %30, label %31, label %39

31:                                               ; preds = %28
  %32 = load i64, ptr %7, align 8, !tbaa !4
  %33 = icmp sle i64 %32, 2
  br i1 %33, label %34, label %39

34:                                               ; preds = %31
  %35 = load ptr, ptr %6, align 8, !tbaa !140
  %36 = icmp ne ptr %35, null
  br i1 %36, label %37, label %39

37:                                               ; preds = %34
  %38 = load ptr, ptr %6, align 8, !tbaa !140
  br label %45

39:                                               ; preds = %34, %31, %28, %22
  %40 = load ptr, ptr %6, align 8, !tbaa !140
  %41 = load i64, ptr %7, align 8, !tbaa !4
  %42 = load ptr, ptr %8, align 8, !tbaa !25
  %43 = getelementptr inbounds [3 x ptr], ptr %10, i64 0, i64 0
  %44 = call ptr @_PyArg_UnpackKeywords(ptr noundef %40, i64 noundef %41, ptr noundef null, ptr noundef %42, ptr noundef @marshal_dumps._parser, i32 noundef 1, i32 noundef 2, i32 noundef 0, i32 noundef 0, ptr noundef %43)
  br label %45

45:                                               ; preds = %39, %37
  %46 = phi ptr [ %38, %37 ], [ %44, %39 ]
  store ptr %46, ptr %6, align 8, !tbaa !140
  %47 = load ptr, ptr %6, align 8, !tbaa !140
  %48 = icmp ne ptr %47, null
  br i1 %48, label %50, label %49

49:                                               ; preds = %45
  br label %90

50:                                               ; preds = %45
  %51 = load ptr, ptr %6, align 8, !tbaa !140
  %52 = getelementptr ptr, ptr %51, i64 0
  %53 = load ptr, ptr %52, align 8, !tbaa !25
  store ptr %53, ptr %12, align 8, !tbaa !25
  %54 = load i64, ptr %7, align 8, !tbaa !4
  %55 = icmp slt i64 %54, 2
  br i1 %55, label %56, label %57

56:                                               ; preds = %50
  br label %71

57:                                               ; preds = %50
  %58 = load i64, ptr %11, align 8, !tbaa !4
  %59 = add i64 %58, -1
  store i64 %59, ptr %11, align 8, !tbaa !4
  %60 = load ptr, ptr %6, align 8, !tbaa !140
  %61 = getelementptr ptr, ptr %60, i64 1
  %62 = load ptr, ptr %61, align 8, !tbaa !25
  %63 = call i32 @PyLong_AsInt(ptr noundef %62)
  store i32 %63, ptr %13, align 4, !tbaa !11
  %64 = load i32, ptr %13, align 4, !tbaa !11
  %65 = icmp eq i32 %64, -1
  br i1 %65, label %66, label %70

66:                                               ; preds = %57
  %67 = call ptr @PyErr_Occurred()
  %68 = icmp ne ptr %67, null
  br i1 %68, label %69, label %70

69:                                               ; preds = %66
  br label %90

70:                                               ; preds = %66, %57
  br label %71

71:                                               ; preds = %70, %56
  %72 = load i64, ptr %11, align 8, !tbaa !4
  %73 = icmp ne i64 %72, 0
  br i1 %73, label %75, label %74

74:                                               ; preds = %71
  br label %84

75:                                               ; preds = %71
  %76 = load ptr, ptr %6, align 8, !tbaa !140
  %77 = getelementptr ptr, ptr %76, i64 2
  %78 = load ptr, ptr %77, align 8, !tbaa !25
  %79 = call i32 @PyObject_IsTrue(ptr noundef %78)
  store i32 %79, ptr %14, align 4, !tbaa !11
  %80 = load i32, ptr %14, align 4, !tbaa !11
  %81 = icmp slt i32 %80, 0
  br i1 %81, label %82, label %83

82:                                               ; preds = %75
  br label %90

83:                                               ; preds = %75
  br label %84

84:                                               ; preds = %83, %74
  %85 = load ptr, ptr %5, align 8, !tbaa !25
  %86 = load ptr, ptr %12, align 8, !tbaa !25
  %87 = load i32, ptr %13, align 4, !tbaa !11
  %88 = load i32, ptr %14, align 4, !tbaa !11
  %89 = call ptr @marshal_dumps_impl(ptr noundef %85, ptr noundef %86, i32 noundef %87, i32 noundef %88)
  store ptr %89, ptr %9, align 8, !tbaa !25
  br label %90

90:                                               ; preds = %84, %82, %69, %49
  %91 = load ptr, ptr %9, align 8, !tbaa !25
  call void @llvm.lifetime.end.p0(i64 4, ptr %14) #11
  call void @llvm.lifetime.end.p0(i64 4, ptr %13) #11
  call void @llvm.lifetime.end.p0(i64 8, ptr %12) #11
  call void @llvm.lifetime.end.p0(i64 8, ptr %11) #11
  call void @llvm.lifetime.end.p0(i64 24, ptr %10) #11
  call void @llvm.lifetime.end.p0(i64 8, ptr %9) #11
  ret ptr %91
}