; Function Attrs: nounwind uwtable
define internal ptr @marshal_dumps(ptr readnone captures(none) %0, ptr noundef %1, i64 noundef %2, ptr noundef %3) #0 {
  %5 = alloca [3 x ptr], align 16
  call void @llvm.lifetime.start.p0(i64 24, ptr nonnull %5) #11
  %.not = icmp eq ptr %3, null
  br i1 %.not, label %8, label %6

6:                                                ; preds = %4
  %7 = getelementptr i8, ptr %3, i64 16
  %.val = load i64, ptr %7, align 8, !tbaa !19
  br label %8

8:                                                ; preds = %4, %6
  %9 = phi i64 [ %.val, %6 ], [ 0, %4 ]
  %10 = add i64 %9, %2
  %11 = add i64 %10, -1
  %12 = add i64 %2, -1
  %13 = icmp ult i64 %12, 2
  %14 = icmp ne ptr %1, null
  %15 = and i1 %14, %13
  %or.cond5 = and i1 %.not, %15
  br i1 %or.cond5, label %.thread, label %16

16:                                               ; preds = %8
  %17 = call ptr @_PyArg_UnpackKeywords(ptr noundef %1, i64 noundef %2, ptr noundef null, ptr noundef %3, ptr noundef nonnull @marshal_dumps._parser, i32 noundef 1, i32 noundef 2, i32 noundef 0, i32 noundef 0, ptr noundef nonnull %5) #11
  %.not37 = icmp eq ptr %17, null
  br i1 %.not37, label %37, label %.thread

.thread:                                          ; preds = %8, %16
  %18 = phi ptr [ %17, %16 ], [ %1, %8 ]
  %19 = load ptr, ptr %18, align 8, !tbaa !29
  %20 = icmp slt i64 %2, 2
  br i1 %20, label %29, label %21

21:                                               ; preds = %.thread
  %22 = add i64 %10, -2
  %23 = getelementptr i8, ptr %18, i64 8
  %24 = load ptr, ptr %23, align 8, !tbaa !29
  %25 = call i32 @PyLong_AsInt(ptr noundef %24) #11
  %26 = icmp eq i32 %25, -1
  br i1 %26, label %27, label %29

27:                                               ; preds = %21
  %28 = call ptr @PyErr_Occurred() #11
  %.not38 = icmp eq ptr %28, null
  br i1 %.not38, label %29, label %37

29:                                               ; preds = %21, %27, %.thread
  %.030 = phi i64 [ %11, %.thread ], [ %22, %27 ], [ %22, %21 ]
  %.029 = phi i32 [ 5, %.thread ], [ -1, %27 ], [ %25, %21 ]
  %.not39 = icmp eq i64 %.030, 0
  br i1 %.not39, label %35, label %30

30:                                               ; preds = %29
  %31 = getelementptr i8, ptr %18, i64 16
  %32 = load ptr, ptr %31, align 8, !tbaa !29
  %33 = call i32 @PyObject_IsTrue(ptr noundef %32) #11
  %34 = icmp slt i32 %33, 0
  br i1 %34, label %37, label %35

35:                                               ; preds = %30, %29
  %.0 = phi i32 [ %33, %30 ], [ 1, %29 ]
  %36 = call fastcc ptr @_PyMarshal_WriteObjectToString(ptr noundef %19, i32 noundef %.029, i32 noundef range(i32 0, -2147483648) %.0)
  br label %37

37:                                               ; preds = %30, %27, %16, %35
  %.031 = phi ptr [ null, %30 ], [ %36, %35 ], [ null, %27 ], [ null, %16 ]
  call void @llvm.lifetime.end.p0(i64 24, ptr nonnull %5) #11
  ret ptr %.031
}